; Function Attrs: mustprogress uwtable
define hidden void @_ZN4cvc58internal12OracleCallerC2ERKNS0_12NodeTemplateILb1EEE(ptr noundef nonnull align 8 dereferenceable(64) %0, ptr noundef nonnull readonly align 8 captures(none) dereferenceable(8) %1) unnamed_addr #3 align 2 personality ptr @__gxx_personality_v0 {
  tail call void @_ZN4cvc58internal12OracleCaller12getOracleForERKNS0_12NodeTemplateILb1EEE(ptr dead_on_unwind nonnull writable sret(%"class.cvc5::internal::NodeTemplate") align 8 %0, ptr noundef nonnull align 8 dereferenceable(8) %1)
  %3 = invoke noundef ptr @_ZN4cvc58internal11NodeManager9currentNMEv()
          to label %4 unwind label %13

4:                                                ; preds = %2
  %5 = invoke noundef nonnull align 8 dereferenceable(32) ptr @_ZNK4cvc58internal11NodeManager12getOracleForERKNS0_12NodeTemplateILb1EEE(ptr noundef nonnull align 8 dereferenceable(3560) %3, ptr noundef nonnull align 8 dereferenceable(8) %0)
          to label %6 unwind label %13

6:                                                ; preds = %4
  %7 = getelementptr inbounds nuw i8, ptr %0, i64 8
  store ptr %5, ptr %7, align 8, !tbaa !3
  %8 = getelementptr inbounds nuw i8, ptr %0, i64 24
  store i32 0, ptr %8, align 8, !tbaa !8
  %9 = getelementptr inbounds nuw i8, ptr %0, i64 32
  store ptr null, ptr %9, align 8, !tbaa !14
  %10 = getelementptr inbounds nuw i8, ptr %0, i64 40
  store ptr %8, ptr %10, align 8, !tbaa !15
  %11 = getelementptr inbounds nuw i8, ptr %0, i64 48
  store ptr %8, ptr %11, align 8, !tbaa !16
  %12 = getelementptr inbounds nuw i8, ptr %0, i64 56
  store i64 0, ptr %12, align 8, !tbaa !17
  ret void

13:                                               ; preds = %4, %2
  %14 = landingpad { ptr, i32 }
          cleanup
  tail call void @_ZN4cvc58internal12NodeTemplateILb1EED2Ev(ptr noundef nonnull align 8 dereferenceable(8) %0) #19
  resume { ptr, i32 } %14
}